; Function Attrs: mustprogress nounwind uwtable
define hidden void @_ZN14MacroAssembler15bang_stack_sizeE8RegisterS0_(ptr noundef nonnull align 8 dereferenceable(40) %0, i32 %1, i32 %2) local_unnamed_addr #0 align 2 {
  %4 = alloca %class.Address, align 8
  %5 = alloca %class.Label, align 8
  %6 = alloca %class.Address, align 8
  %7 = alloca %class.Address, align 8
  tail call void @_ZN9Assembler4movqE8RegisterS0_(ptr noundef nonnull align 8 dereferenceable(40) %0, i32 %2, i32 4) #18
  store i32 -1, ptr %5, align 8
  %8 = getelementptr inbounds i8, ptr %5, i64 20
  store i32 0, ptr %8, align 4
  %9 = getelementptr inbounds i8, ptr %5, i64 24
  store ptr null, ptr %9, align 8
  %10 = getelementptr inbounds i8, ptr %5, i64 32
  store i8 0, ptr %10, align 8
  call void @_ZN17AbstractAssembler4bindER5Label(ptr noundef nonnull align 8 dereferenceable(24) %0, ptr noundef nonnull align 8 dereferenceable(33) %5) #18
  %11 = load i64, ptr @_ZN6OSInfo13_vm_page_sizeE, align 8
  %12 = trunc i64 %11 to i32
  %13 = sub nsw i32 0, %12
  store i32 %2, ptr %6, align 8
  %14 = getelementptr inbounds i8, ptr %6, i64 4
  store i32 -1, ptr %14, align 4
  %15 = getelementptr inbounds i8, ptr %6, i64 8
  store i32 -1, ptr %15, align 8
  %16 = getelementptr inbounds i8, ptr %6, i64 12
  store i32 -1, ptr %16, align 4
  %17 = getelementptr inbounds i8, ptr %6, i64 16
  store i32 %13, ptr %17, align 8
  %18 = getelementptr inbounds i8, ptr %6, i64 20
  store i8 0, ptr %18, align 4
  %19 = getelementptr inbounds i8, ptr %6, i64 24
  store ptr getelementptr inbounds inrange(-16, 72) (i8, ptr @_ZTV10Relocation, i64 16), ptr %19, align 8
  %20 = getelementptr inbounds i8, ptr %6, i64 32
  store ptr null, ptr %20, align 8
  %21 = getelementptr inbounds i8, ptr %6, i64 40
  store i32 0, ptr %21, align 8
  call void @_ZN9Assembler4movlE7Address8Register(ptr noundef nonnull align 8 dereferenceable(40) %0, ptr noundef nonnull %6, i32 %1) #18
  %22 = load i64, ptr @_ZN6OSInfo13_vm_page_sizeE, align 8
  %23 = trunc i64 %22 to i32
  call void @_ZN9Assembler4subqE8Registeri(ptr noundef nonnull align 8 dereferenceable(40) %0, i32 %2, i32 noundef %23) #18
  %24 = load i64, ptr @_ZN6OSInfo13_vm_page_sizeE, align 8
  %25 = trunc i64 %24 to i32
  call void @_ZN9Assembler4sublE8Registeri(ptr noundef nonnull align 8 dereferenceable(40) %0, i32 %1, i32 noundef %25) #18
  call void @_ZN9Assembler3jccENS_9ConditionER5Labelb(ptr noundef nonnull align 8 dereferenceable(40) %0, i32 noundef 15, ptr noundef nonnull align 8 dereferenceable(33) %5, i1 noundef zeroext true) #18
  %26 = load i64, ptr @_ZN13StackOverflow23_stack_shadow_zone_sizeE, align 8
  %27 = trunc i64 %26 to i32
  %28 = load i64, ptr @_ZN6OSInfo13_vm_page_sizeE, align 8
  %29 = trunc i64 %28 to i32
  %30 = sdiv i32 %27, %29
  %31 = icmp sgt i32 %30, 1
  br i1 %31, label %.lr.ph, label %._crit_edge

.lr.ph:                                           ; preds = %3
  %32 = getelementptr inbounds i8, ptr %7, i64 4
  %33 = getelementptr inbounds i8, ptr %7, i64 8
  %34 = getelementptr inbounds i8, ptr %7, i64 12
  %35 = getelementptr inbounds i8, ptr %7, i64 16
  %36 = getelementptr inbounds i8, ptr %7, i64 20
  %37 = getelementptr inbounds i8, ptr %7, i64 24
  %38 = getelementptr inbounds i8, ptr %7, i64 32
  %39 = getelementptr inbounds i8, ptr %7, i64 40
  %40 = getelementptr inbounds i8, ptr %4, i64 24
  %41 = load ptr, ptr getelementptr inbounds inrange(-32, 56) (i8, ptr @_ZTV10Relocation, i64 32), align 8
  br label %42

42:                                               ; preds = %.lr.ph, %42
  %43 = phi i32 [ %29, %.lr.ph ], [ %50, %42 ]
  %.017 = phi i32 [ 1, %.lr.ph ], [ %46, %42 ]
  %44 = mul i32 %.017, %43
  %45 = sub i32 0, %44
  store i32 %2, ptr %7, align 8
  store i32 -1, ptr %32, align 4
  store i32 -1, ptr %33, align 8
  store i32 -1, ptr %34, align 4
  store i32 %45, ptr %35, align 8
  store i8 0, ptr %36, align 4
  store ptr getelementptr inbounds inrange(-16, 72) (i8, ptr @_ZTV10Relocation, i64 16), ptr %37, align 8
  store ptr null, ptr %38, align 8
  store i32 0, ptr %39, align 8
  call void @llvm.lifetime.start.p0(i64 64, ptr nonnull %4)
  call void @llvm.memcpy.p0.p0.i64(ptr noundef nonnull align 8 dereferenceable(21) %4, ptr noundef nonnull align 8 dereferenceable(21) %7, i64 21, i1 false)
  call void %41(ptr noundef nonnull align 8 dereferenceable(20) %37, ptr noundef nonnull align 8 dereferenceable(40) %40) #18
  call void @_ZN9Assembler4movqE7Address8Register(ptr noundef nonnull align 8 dereferenceable(40) %0, ptr noundef nonnull %4, i32 %1) #18
  call void @llvm.lifetime.end.p0(i64 64, ptr nonnull %4)
  %46 = add nuw nsw i32 %.017, 1
  %47 = load i64, ptr @_ZN13StackOverflow23_stack_shadow_zone_sizeE, align 8
  %48 = trunc i64 %47 to i32
  %49 = load i64, ptr @_ZN6OSInfo13_vm_page_sizeE, align 8
  %50 = trunc i64 %49 to i32
  %51 = sdiv i32 %48, %50
  %52 = icmp slt i32 %46, %51
  br i1 %52, label %42, label %._crit_edge, !llvm.loop !103

._crit_edge:                                      ; preds = %42, %3
  ret void
}